target datalayout = "e-m:e-p270:32:32-p271:32:32-p272:64:64-i64:64-i128:128-f80:128-n8:16:32:64-S128"
target triple = "x86_64-pc-linux-gnu"

; Function Attrs: mustprogress uwtable
define i32 @cvWriteFrame(ptr noundef %0, ptr noundef %1) #4 {
  %3 = alloca ptr, align 8
  %4 = alloca ptr, align 8
  store ptr %0, ptr %3, align 8, !tbaa !27
  store ptr %1, ptr %4, align 8, !tbaa !29
  %5 = load ptr, ptr %3, align 8, !tbaa !27
  %6 = icmp ne ptr %5, null
  br i1 %6, label %7, label %15

7:                                                ; preds = %2
  %8 = load ptr, ptr %3, align 8, !tbaa !27
  %9 = load ptr, ptr %4, align 8, !tbaa !29
  %10 = load ptr, ptr %8, align 8, !tbaa !18
  %11 = getelementptr inbounds ptr, ptr %10, i64 2
  %12 = load ptr, ptr %11, align 8
  %13 = call noundef zeroext i1 %12(ptr noundef nonnull align 8 dereferenceable(8) %8, ptr noundef %9)
  %14 = zext i1 %13 to i32
  br label %16

15:                                               ; preds = %2
  br label %16

16:                                               ; preds = %15, %7
  %17 = phi i32 [ %14, %7 ], [ 0, %15 ]
  ret i32 %17
}