; Function Attrs: mustprogress uwtable
define range(i32 0, 2) i32 @cvWriteFrame(ptr noundef %0, ptr noundef %1) local_unnamed_addr #3 {
  %.not = icmp eq ptr %0, null
  br i1 %.not, label %9, label %3

3:                                                ; preds = %2
  %4 = load ptr, ptr %0, align 8, !tbaa !30
  %5 = getelementptr inbounds nuw i8, ptr %4, i64 16
  %6 = load ptr, ptr %5, align 8
  %7 = tail call noundef zeroext i1 %6(ptr noundef nonnull align 8 dereferenceable(8) %0, ptr noundef %1)
  %8 = zext i1 %7 to i32
  br label %9

9:                                                ; preds = %2, %3
  %10 = phi i32 [ %8, %3 ], [ 0, %2 ]
  ret i32 %10
}